target datalayout = "e-m:e-p270:32:32-p271:32:32-p272:64:64-i64:64-i128:128-f80:128-n8:16:32:64-S128"
target triple = "x86_64-pc-linux-gnu"

%struct.ma_allocation_callbacks = type { ptr, ptr, ptr, ptr }
%struct.ma_encoder_config = type { i32, i32, i32, i32, %struct.ma_allocation_callbacks }
%struct.ma_encoder = type { %struct.ma_encoder_config, ptr, ptr, ptr, ptr, ptr, ptr, ptr, %union.anon.55 }
%union.anon.55 = type { %struct.anon.56 }
%struct.anon.56 = type { ptr, ptr }

; Function Attrs: nounwind uwtable
define internal void @ma_allocation_callbacks_init_default(ptr dead_on_unwind noalias writable sret(%struct.ma_allocation_callbacks) align 8 %0) #0 {
  %2 = getelementptr inbounds nuw %struct.ma_allocation_callbacks, ptr %0, i32 0, i32 0
  store ptr null, ptr %2, align 8
  %3 = getelementptr inbounds nuw %struct.ma_allocation_callbacks, ptr %0, i32 0, i32 1
  store ptr @ma__malloc_default, ptr %3, align 8
  %4 = getelementptr inbounds nuw %struct.ma_allocation_callbacks, ptr %0, i32 0, i32 2
  store ptr @ma__realloc_default, ptr %4, align 8
  %5 = getelementptr inbounds nuw %struct.ma_allocation_callbacks, ptr %0, i32 0, i32 3
  store ptr @ma__free_default, ptr %5, align 8
  ret void
}

; Function Attrs: nounwind uwtable
define internal i32 @ma_allocation_callbacks_init_copy(ptr noundef %0, ptr noundef %1) #0 {
  %3 = alloca i32, align 4
  %4 = alloca ptr, align 8
  %5 = alloca ptr, align 8
  %6 = alloca %struct.ma_allocation_callbacks, align 8
  %7 = alloca %struct.ma_allocation_callbacks, align 8
  store ptr %0, ptr %4, align 8
  store ptr %1, ptr %5, align 8
  %8 = load ptr, ptr %4, align 8
  %9 = icmp eq ptr %8, null
  br i1 %9, label %10, label %11

10:                                               ; preds = %2
  store i32 -2, ptr %3, align 4
  br label %60

11:                                               ; preds = %2
  %12 = load ptr, ptr %5, align 8
  %13 = icmp eq ptr %12, null
  br i1 %13, label %14, label %16

14:                                               ; preds = %11
  %15 = load ptr, ptr %4, align 8
  call void @llvm.lifetime.start.p0(i64 32, ptr %6) #21
  call void @ma_allocation_callbacks_init_default(ptr dead_on_unwind writable sret(%struct.ma_allocation_callbacks) align 8 %6)
  call void @llvm.memcpy.p0.p0.i64(ptr align 8 %15, ptr align 8 %6, i64 32, i1 false)
  call void @llvm.lifetime.end.p0(i64 32, ptr %6) #21
  br label %59

16:                                               ; preds = %11
  %17 = load ptr, ptr %5, align 8
  %18 = getelementptr inbounds nuw %struct.ma_allocation_callbacks, ptr %17, i32 0, i32 0
  %19 = load ptr, ptr %18, align 8
  %20 = icmp eq ptr %19, null
  br i1 %20, label %21, label %38

21:                                               ; preds = %16
  %22 = load ptr, ptr %5, align 8
  %23 = getelementptr inbounds nuw %struct.ma_allocation_callbacks, ptr %22, i32 0, i32 3
  %24 = load ptr, ptr %23, align 8
  %25 = icmp eq ptr %24, null
  br i1 %25, label %26, label %38

26:                                               ; preds = %21
  %27 = load ptr, ptr %5, align 8
  %28 = getelementptr inbounds nuw %struct.ma_allocation_callbacks, ptr %27, i32 0, i32 1
  %29 = load ptr, ptr %28, align 8
  %30 = icmp eq ptr %29, null
  br i1 %30, label %31, label %38

31:                                               ; preds = %26
  %32 = load ptr, ptr %5, align 8
  %33 = getelementptr inbounds nuw %struct.ma_allocation_callbacks, ptr %32, i32 0, i32 2
  %34 = load ptr, ptr %33, align 8
  %35 = icmp eq ptr %34, null
  br i1 %35, label %36, label %38

36:                                               ; preds = %31
  %37 = load ptr, ptr %4, align 8
  call void @llvm.lifetime.start.p0(i64 32, ptr %7) #21
  call void @ma_allocation_callbacks_init_default(ptr dead_on_unwind writable sret(%struct.ma_allocation_callbacks) align 8 %7)
  call void @llvm.memcpy.p0.p0.i64(ptr align 8 %37, ptr align 8 %7, i64 32, i1 false)
  call void @llvm.lifetime.end.p0(i64 32, ptr %7) #21
  br label %58

38:                                               ; preds = %31, %26, %21, %16
  %39 = load ptr, ptr %5, align 8
  %40 = getelementptr inbounds nuw %struct.ma_allocation_callbacks, ptr %39, i32 0, i32 3
  %41 = load ptr, ptr %40, align 8
  %42 = icmp eq ptr %41, null
  br i1 %42, label %53, label %43

43:                                               ; preds = %38
  %44 = load ptr, ptr %5, align 8
  %45 = getelementptr inbounds nuw %struct.ma_allocation_callbacks, ptr %44, i32 0, i32 1
  %46 = load ptr, ptr %45, align 8
  %47 = icmp eq ptr %46, null
  br i1 %47, label %48, label %54

48:                                               ; preds = %43
  %49 = load ptr, ptr %5, align 8
  %50 = getelementptr inbounds nuw %struct.ma_allocation_callbacks, ptr %49, i32 0, i32 2
  %51 = load ptr, ptr %50, align 8
  %52 = icmp eq ptr %51, null
  br i1 %52, label %53, label %54

53:                                               ; preds = %48, %38
  store i32 -2, ptr %3, align 4
  br label %60

54:                                               ; preds = %48, %43
  %55 = load ptr, ptr %4, align 8
  %56 = load ptr, ptr %5, align 8
  call void @llvm.memcpy.p0.p0.i64(ptr align 8 %55, ptr align 8 %56, i64 32, i1 false)
  br label %57

57:                                               ; preds = %54
  br label %58

58:                                               ; preds = %57, %36
  br label %59

59:                                               ; preds = %58, %14
  store i32 0, ptr %3, align 4
  br label %60

60:                                               ; preds = %59, %53, %10
  %61 = load i32, ptr %3, align 4
  ret i32 %61
}

; Function Attrs: alwaysinline nounwind uwtable
define internal void @ma_zero_memory_default(ptr noundef %0, i64 noundef %1) #7 {
  %3 = alloca ptr, align 8
  %4 = alloca i64, align 8
  store ptr %0, ptr %3, align 8
  store i64 %1, ptr %4, align 8
  %5 = load ptr, ptr %3, align 8
  %6 = icmp eq ptr %5, null
  br i1 %6, label %7, label %8

7:                                                ; preds = %2
  br label %14

8:                                                ; preds = %2
  %9 = load i64, ptr %4, align 8
  %10 = icmp ugt i64 %9, 0
  br i1 %10, label %11, label %14

11:                                               ; preds = %8
  %12 = load ptr, ptr %3, align 8
  %13 = load i64, ptr %4, align 8
  call void @llvm.memset.p0.i64(ptr align 1 %12, i8 0, i64 %13, i1 false)
  br label %14

14:                                               ; preds = %7, %11, %8
  ret void
}

; Function Attrs: nounwind uwtable
define hidden i32 @ma_encoder_init__internal(ptr noundef %0, ptr noundef %1, ptr noundef %2, ptr noundef %3) #0 {
  %5 = alloca i32, align 4
  %6 = alloca ptr, align 8
  %7 = alloca ptr, align 8
  %8 = alloca ptr, align 8
  %9 = alloca ptr, align 8
  %10 = alloca i32, align 4
  %11 = alloca i32, align 4
  store ptr %0, ptr %6, align 8
  store ptr %1, ptr %7, align 8
  store ptr %2, ptr %8, align 8
  store ptr %3, ptr %9, align 8
  call void @llvm.lifetime.start.p0(i64 4, ptr %10) #21
  store i32 0, ptr %10, align 4
  %12 = load ptr, ptr %6, align 8
  %13 = icmp eq ptr %12, null
  br i1 %13, label %17, label %14

14:                                               ; preds = %4
  %15 = load ptr, ptr %7, align 8
  %16 = icmp eq ptr %15, null
  br i1 %16, label %17, label %18

17:                                               ; preds = %14, %4
  store i32 -2, ptr %5, align 4
  store i32 1, ptr %11, align 4
  br label %45

18:                                               ; preds = %14
  %19 = load ptr, ptr %6, align 8
  %20 = load ptr, ptr %9, align 8
  %21 = getelementptr inbounds nuw %struct.ma_encoder, ptr %20, i32 0, i32 1
  store ptr %19, ptr %21, align 8
  %22 = load ptr, ptr %7, align 8
  %23 = load ptr, ptr %9, align 8
  %24 = getelementptr inbounds nuw %struct.ma_encoder, ptr %23, i32 0, i32 2
  store ptr %22, ptr %24, align 8
  %25 = load ptr, ptr %8, align 8
  %26 = load ptr, ptr %9, align 8
  %27 = getelementptr inbounds nuw %struct.ma_encoder, ptr %26, i32 0, i32 6
  store ptr %25, ptr %27, align 8
  %28 = load ptr, ptr %9, align 8
  %29 = getelementptr inbounds nuw %struct.ma_encoder, ptr %28, i32 0, i32 0
  %30 = getelementptr inbounds nuw %struct.ma_encoder_config, ptr %29, i32 0, i32 0
  %31 = load i32, ptr %30, align 8
  switch i32 %31, label %33 [
    i32 1, label %32
  ]

32:                                               ; preds = %18
  store i32 -203, ptr %10, align 4
  br label %34

33:                                               ; preds = %18
  store i32 -2, ptr %10, align 4
  br label %34

34:                                               ; preds = %33, %32
  %35 = load i32, ptr %10, align 4
  %36 = icmp eq i32 %35, 0
  br i1 %36, label %37, label %43

37:                                               ; preds = %34
  %38 = load ptr, ptr %9, align 8
  %39 = getelementptr inbounds nuw %struct.ma_encoder, ptr %38, i32 0, i32 3
  %40 = load ptr, ptr %39, align 8
  %41 = load ptr, ptr %9, align 8
  %42 = call i32 %40(ptr noundef %41)
  store i32 %42, ptr %10, align 4
  br label %43

43:                                               ; preds = %37, %34
  %44 = load i32, ptr %10, align 4
  store i32 %44, ptr %5, align 4
  store i32 1, ptr %11, align 4
  br label %45

45:                                               ; preds = %43, %17
  call void @llvm.lifetime.end.p0(i64 4, ptr %10) #21
  %46 = load i32, ptr %5, align 4
  ret i32 %46
}

; Function Attrs: nounwind uwtable
define hidden i32 @ma_encoder_preinit(ptr noundef %0, ptr noundef %1) #0 {
  %3 = alloca i32, align 4
  %4 = alloca ptr, align 8
  %5 = alloca ptr, align 8
  %6 = alloca i32, align 4
  %7 = alloca i32, align 4
  store ptr %0, ptr %4, align 8
  store ptr %1, ptr %5, align 8
  call void @llvm.lifetime.start.p0(i64 4, ptr %6) #21
  %8 = load ptr, ptr %5, align 8
  %9 = icmp eq ptr %8, null
  br i1 %9, label %10, label %11

10:                                               ; preds = %2
  store i32 -2, ptr %3, align 4
  store i32 1, ptr %7, align 4
  br label %47

11:                                               ; preds = %2
  %12 = load ptr, ptr %5, align 8
  call void @ma_zero_memory_default(ptr noundef %12, i64 noundef 120)
  %13 = load ptr, ptr %4, align 8
  %14 = icmp eq ptr %13, null
  br i1 %14, label %15, label %16

15:                                               ; preds = %11
  store i32 -2, ptr %3, align 4
  store i32 1, ptr %7, align 4
  br label %47

16:                                               ; preds = %11
  %17 = load ptr, ptr %4, align 8
  %18 = getelementptr inbounds nuw %struct.ma_encoder_config, ptr %17, i32 0, i32 1
  %19 = load i32, ptr %18, align 4
  %20 = icmp eq i32 %19, 0
  br i1 %20, label %31, label %21

21:                                               ; preds = %16
  %22 = load ptr, ptr %4, align 8
  %23 = getelementptr inbounds nuw %struct.ma_encoder_config, ptr %22, i32 0, i32 2
  %24 = load i32, ptr %23, align 8
  %25 = icmp eq i32 %24, 0
  br i1 %25, label %31, label %26

26:                                               ; preds = %21
  %27 = load ptr, ptr %4, align 8
  %28 = getelementptr inbounds nuw %struct.ma_encoder_config, ptr %27, i32 0, i32 3
  %29 = load i32, ptr %28, align 4
  %30 = icmp eq i32 %29, 0
  br i1 %30, label %31, label %32

31:                                               ; preds = %26, %21, %16
  store i32 -2, ptr %3, align 4
  store i32 1, ptr %7, align 4
  br label %47

32:                                               ; preds = %26
  %33 = load ptr, ptr %5, align 8
  %34 = getelementptr inbounds nuw %struct.ma_encoder, ptr %33, i32 0, i32 0
  %35 = load ptr, ptr %4, align 8
  call void @llvm.memcpy.p0.p0.i64(ptr align 8 %34, ptr align 8 %35, i64 48, i1 false)
  %36 = load ptr, ptr %5, align 8
  %37 = getelementptr inbounds nuw %struct.ma_encoder, ptr %36, i32 0, i32 0
  %38 = getelementptr inbounds nuw %struct.ma_encoder_config, ptr %37, i32 0, i32 4
  %39 = load ptr, ptr %4, align 8
  %40 = getelementptr inbounds nuw %struct.ma_encoder_config, ptr %39, i32 0, i32 4
  %41 = call i32 @ma_allocation_callbacks_init_copy(ptr noundef %38, ptr noundef %40)
  store i32 %41, ptr %6, align 4
  %42 = load i32, ptr %6, align 4
  %43 = icmp ne i32 %42, 0
  br i1 %43, label %44, label %46

44:                                               ; preds = %32
  %45 = load i32, ptr %6, align 4
  store i32 %45, ptr %3, align 4
  store i32 1, ptr %7, align 4
  br label %47

46:                                               ; preds = %32
  store i32 0, ptr %3, align 4
  store i32 1, ptr %7, align 4
  br label %47

47:                                               ; preds = %46, %44, %31, %15, %10
  call void @llvm.lifetime.end.p0(i64 4, ptr %6) #21
  %48 = load i32, ptr %3, align 4
  ret i32 %48
}

; Function Attrs: nounwind uwtable
define hidden i32 @ma_encoder_init(ptr noundef %0, ptr noundef %1, ptr noundef %2, ptr noundef %3, ptr noundef %4) #0 {
  %6 = alloca i32, align 4
  %7 = alloca ptr, align 8
  %8 = alloca ptr, align 8
  %9 = alloca ptr, align 8
  %10 = alloca ptr, align 8
  %11 = alloca ptr, align 8
  %12 = alloca i32, align 4
  %13 = alloca i32, align 4
  store ptr %0, ptr %7, align 8
  store ptr %1, ptr %8, align 8
  store ptr %2, ptr %9, align 8
  store ptr %3, ptr %10, align 8
  store ptr %4, ptr %11, align 8
  call void @llvm.lifetime.start.p0(i64 4, ptr %12) #21
  %14 = load ptr, ptr %10, align 8
  %15 = load ptr, ptr %11, align 8
  %16 = call i32 @ma_encoder_preinit(ptr noundef %14, ptr noundef %15)
  store i32 %16, ptr %12, align 4
  %17 = load i32, ptr %12, align 4
  %18 = icmp ne i32 %17, 0
  br i1 %18, label %19, label %21

19:                                               ; preds = %5
  %20 = load i32, ptr %12, align 4
  store i32 %20, ptr %6, align 4
  store i32 1, ptr %13, align 4
  br label %27

21:                                               ; preds = %5
  %22 = load ptr, ptr %7, align 8
  %23 = load ptr, ptr %8, align 8
  %24 = load ptr, ptr %9, align 8
  %25 = load ptr, ptr %11, align 8
  %26 = call i32 @ma_encoder_init__internal(ptr noundef %22, ptr noundef %23, ptr noundef %24, ptr noundef %25)
  store i32 %26, ptr %6, align 4
  store i32 1, ptr %13, align 4
  br label %27

27:                                               ; preds = %21, %19
  call void @llvm.lifetime.end.p0(i64 4, ptr %12) #21
  %28 = load i32, ptr %6, align 4
  ret i32 %28
}