; Function Attrs: mustprogress nofree norecurse nosync nounwind willreturn memory(argmem: readwrite) uwtable
define hidden range(i32 -203, -1) i32 @ma_encoder_init(ptr noundef %0, ptr noundef %1, ptr noundef %2, ptr noundef readonly captures(address_is_null) %3, ptr noundef captures(address_is_null) %4) local_unnamed_addr #18 {
  %6 = icmp eq ptr %4, null
  br i1 %6, label %ma_encoder_init__internal.exit, label %ma_zero_memory_default.exit.i

ma_zero_memory_default.exit.i:                    ; preds = %5
  tail call void @llvm.memset.p0.i64(ptr noundef nonnull align 1 dereferenceable(120) %4, i8 0, i64 120, i1 false)
  %7 = icmp eq ptr %3, null
  br i1 %7, label %ma_encoder_init__internal.exit, label %8

8:                                                ; preds = %ma_zero_memory_default.exit.i
  %9 = getelementptr inbounds nuw i8, ptr %3, i64 4
  %10 = load i32, ptr %9, align 4
  %11 = icmp eq i32 %10, 0
  br i1 %11, label %ma_encoder_init__internal.exit, label %12

12:                                               ; preds = %8
  %13 = getelementptr inbounds nuw i8, ptr %3, i64 8
  %14 = load i32, ptr %13, align 8
  %15 = icmp eq i32 %14, 0
  br i1 %15, label %ma_encoder_init__internal.exit, label %16

16:                                               ; preds = %12
  %17 = getelementptr inbounds nuw i8, ptr %3, i64 12
  %18 = load i32, ptr %17, align 4
  %19 = icmp eq i32 %18, 0
  br i1 %19, label %ma_encoder_init__internal.exit, label %20

20:                                               ; preds = %16
  tail call void @llvm.memcpy.p0.p0.i64(ptr noundef nonnull align 8 dereferenceable(48) %4, ptr noundef nonnull readonly align 8 dereferenceable(48) %3, i64 48, i1 false)
  %21 = getelementptr inbounds nuw i8, ptr %4, i64 16
  %22 = getelementptr inbounds nuw i8, ptr %3, i64 16
  %23 = load ptr, ptr %22, align 8
  %24 = icmp eq ptr %23, null
  %25 = getelementptr inbounds nuw i8, ptr %3, i64 40
  %26 = load ptr, ptr %25, align 8
  %27 = icmp eq ptr %26, null
  br i1 %24, label %28, label %38

28:                                               ; preds = %20
  br i1 %27, label %29, label %.thread19.i.i

29:                                               ; preds = %28
  %30 = getelementptr inbounds nuw i8, ptr %3, i64 24
  %31 = load ptr, ptr %30, align 8
  %32 = icmp eq ptr %31, null
  br i1 %32, label %33, label %ma_encoder_init__internal.exit

33:                                               ; preds = %29
  %34 = getelementptr inbounds nuw i8, ptr %3, i64 32
  %35 = load ptr, ptr %34, align 8
  %36 = icmp eq ptr %35, null
  br i1 %36, label %37, label %ma_encoder_init__internal.exit

37:                                               ; preds = %33
  store ptr null, ptr %21, align 8
  %.sroa.4.0..sroa_idx.i.i = getelementptr inbounds nuw i8, ptr %4, i64 24
  store ptr @ma__malloc_default, ptr %.sroa.4.0..sroa_idx.i.i, align 8
  %.sroa.5.0..sroa_idx.i.i = getelementptr inbounds nuw i8, ptr %4, i64 32
  store ptr @ma__realloc_default, ptr %.sroa.5.0..sroa_idx.i.i, align 8
  %.sroa.6.0..sroa_idx.i.i = getelementptr inbounds nuw i8, ptr %4, i64 40
  store ptr @ma__free_default, ptr %.sroa.6.0..sroa_idx.i.i, align 8
  br label %ma_encoder_preinit.exit

38:                                               ; preds = %20
  br i1 %27, label %ma_encoder_init__internal.exit, label %.thread19.i.i

.thread19.i.i:                                    ; preds = %38, %28
  %39 = getelementptr inbounds nuw i8, ptr %3, i64 24
  %40 = load ptr, ptr %39, align 8
  %41 = icmp eq ptr %40, null
  br i1 %41, label %42, label %46

42:                                               ; preds = %.thread19.i.i
  %43 = getelementptr inbounds nuw i8, ptr %3, i64 32
  %44 = load ptr, ptr %43, align 8
  %45 = icmp eq ptr %44, null
  br i1 %45, label %ma_encoder_init__internal.exit, label %46

46:                                               ; preds = %42, %.thread19.i.i
  tail call void @llvm.memcpy.p0.p0.i64(ptr noundef nonnull align 8 dereferenceable(32) %21, ptr noundef nonnull readonly align 8 dereferenceable(32) %22, i64 32, i1 false)
  br label %ma_encoder_preinit.exit

ma_encoder_preinit.exit:                          ; preds = %46, %37
  %47 = icmp eq ptr %0, null
  %48 = icmp eq ptr %1, null
  %or.cond.i = or i1 %47, %48
  br i1 %or.cond.i, label %ma_encoder_init__internal.exit, label %49

49:                                               ; preds = %ma_encoder_preinit.exit
  %50 = getelementptr inbounds nuw i8, ptr %4, i64 48
  store ptr %0, ptr %50, align 8
  %51 = getelementptr inbounds nuw i8, ptr %4, i64 56
  store ptr %1, ptr %51, align 8
  %52 = getelementptr inbounds nuw i8, ptr %4, i64 88
  store ptr %2, ptr %52, align 8
  %53 = load i32, ptr %4, align 8
  %cond.i = icmp eq i32 %53, 1
  %..i = select i1 %cond.i, i32 -203, i32 -2
  br label %ma_encoder_init__internal.exit

ma_encoder_init__internal.exit:                   ; preds = %29, %33, %38, %42, %8, %12, %16, %ma_zero_memory_default.exit.i, %5, %49, %ma_encoder_preinit.exit
  %.0 = phi i32 [ %..i, %49 ], [ -2, %ma_encoder_preinit.exit ], [ -2, %5 ], [ -2, %ma_zero_memory_default.exit.i ], [ -2, %16 ], [ -2, %12 ], [ -2, %8 ], [ -2, %42 ], [ -2, %38 ], [ -2, %33 ], [ -2, %29 ]
  ret i32 %.0
}